ARM GAS  C:\Users\Asus\AppData\Local\Temp\ccPXcsTd.s 			page 1


   1              		.cpu cortex-m4
   2              		.arch armv7e-m
   3              		.fpu fpv4-sp-d16
   4              		.eabi_attribute 27, 1
   5              		.eabi_attribute 28, 1
   6              		.eabi_attribute 20, 1
   7              		.eabi_attribute 21, 1
   8              		.eabi_attribute 23, 3
   9              		.eabi_attribute 24, 1
  10              		.eabi_attribute 25, 1
  11              		.eabi_attribute 26, 1
  12              		.eabi_attribute 30, 1
  13              		.eabi_attribute 34, 1
  14              		.eabi_attribute 18, 4
  15              		.file	"i2c.c"
  16              		.text
  17              	.Ltext0:
  18              		.cfi_sections	.debug_frame
  19              		.file 1 "Core/Src/i2c.c"
  20              		.section	.text.I2C_WriteByte,"ax",%progbits
  21              		.align	1
  22              		.global	I2C_WriteByte
  23              		.syntax unified
  24              		.thumb
  25              		.thumb_func
  27              	I2C_WriteByte:
  28              	.LFB130:
   1:Core/Src/i2c.c **** #include "i2c.h"
   2:Core/Src/i2c.c **** 
   3:Core/Src/i2c.c **** /**
   4:Core/Src/i2c.c ****   * @brief  –Ч–∞–њ–Є—Б—М –Њ–і–љ–Њ–≥–Њ –±–∞–є—В–∞ –≤ —А–µ–≥–Є—Б—В—А.
   5:Core/Src/i2c.c ****   * @param  slave_address:     –Р–і—А–µ—Б —Г—Б—В—А–Њ–є—Б—В–≤–∞ (–љ–∞–њ—А–Є–Љ–µ—А, 0x32)
   6:Core/Src/i2c.c ****   * @param  register_address:  –Р–і—А–µ—Б —А–µ–≥–Є—Б—В—А–∞ –і–ї—П –Ј–∞–њ–Є—Б–Є (–љ–∞–њ—А–Є–Љ–µ—А, 0
   7:Core/Src/i2c.c ****   * @param  byte:              –Ч–∞–њ–Є—Б—Л–≤–∞–µ–Љ—Л–є –±–∞–є—В
   8:Core/Src/i2c.c ****   * @retval None
   9:Core/Src/i2c.c ****   */
  10:Core/Src/i2c.c **** void I2C_WriteByte(uint8_t slave_address, uint8_t register_address, uint8_t byte){
  29              		.loc 1 10 82 view -0
  30              		.cfi_startproc
  31              		@ args = 0, pretend = 0, frame = 0
  32              		@ frame_needed = 0, uses_anonymous_args = 0
  33              		@ link register save eliminated.
  34              	.LVL0:
  35              		.loc 1 10 82 is_stmt 0 view .LVU1
  36 0000 10B4     		push	{r4}
  37              	.LCFI0:
  38              		.cfi_def_cfa_offset 4
  39              		.cfi_offset 4, -4
  40              	.L2:
  11:Core/Src/i2c.c ****     // –Ц–і—С–Љ, –њ–Њ–Ї–∞ —И–Є–љ–∞ –љ–µ –Њ—Б–≤–Њ–±–Њ–і–Є—В—Б—П
  12:Core/Src/i2c.c ****     while(I2C1->SR2 & I2C_SR2_BUSY);
  41              		.loc 1 12 11 is_stmt 1 discriminator 1 view .LVU2
  42              		.loc 1 12 15 is_stmt 0 discriminator 1 view .LVU3
  43 0002 194B     		ldr	r3, .L9
  44 0004 9B69     		ldr	r3, [r3, #24]
  45              		.loc 1 12 11 discriminator 1 view .LVU4
  46 0006 13F0020F 		tst	r3, #2
ARM GAS  C:\Users\Asus\AppData\Local\Temp\ccPXcsTd.s 			page 2


  47 000a FAD1     		bne	.L2
  13:Core/Src/i2c.c **** 
  14:Core/Src/i2c.c ****     // –У–µ–љ–µ—А–∞—Ж–Є—П —Б—В–∞—А—В–Њ–≤–Њ–≥–Њ —Г—Б–ї–Њ–≤–Є—П
  15:Core/Src/i2c.c ****     I2C1->CR1 |= I2C_CR1_START;
  48              		.loc 1 15 5 is_stmt 1 view .LVU5
  49              		.loc 1 15 9 is_stmt 0 view .LVU6
  50 000c 164C     		ldr	r4, .L9
  51 000e 2368     		ldr	r3, [r4]
  52              		.loc 1 15 15 view .LVU7
  53 0010 43F48073 		orr	r3, r3, #256
  54 0014 2360     		str	r3, [r4]
  16:Core/Src/i2c.c ****     while (!(I2C1->SR1 & I2C_SR1_SB));   // –Ю–ґ–Є–і–∞–љ–Є–µ —Г—Б—В–∞–љ–Њ–≤–Ї–Є —Д–ї–∞–≥–∞ SB
  55              		.loc 1 16 5 is_stmt 1 view .LVU8
  56              	.L3:
  57              		.loc 1 16 12 discriminator 1 view .LVU9
  58              		.loc 1 16 18 is_stmt 0 discriminator 1 view .LVU10
  59 0016 144B     		ldr	r3, .L9
  60 0018 5B69     		ldr	r3, [r3, #20]
  61              		.loc 1 16 12 discriminator 1 view .LVU11
  62 001a 13F0010F 		tst	r3, #1
  63 001e FAD0     		beq	.L3
  17:Core/Src/i2c.c **** 
  18:Core/Src/i2c.c ****     // –Ю—В–њ—А–∞–≤–Ї–∞ –∞–і—А–µ—Б–∞ —Г—Б—В—А–Њ–є—Б—В–≤–∞ —Б –±–Є—В–Њ–Љ –Ј–∞–њ–Є—Б–Є (0)
  19:Core/Src/i2c.c ****     I2C1->DR = (slave_address << 1) | 0;     // –°–і–≤–Є–≥ –∞–і—А–µ—Б–∞ –≤–ї–µ–≤–Њ –Є —Г—Б—В–∞–љ–Њ–
  64              		.loc 1 19 5 is_stmt 1 view .LVU12
  65              		.loc 1 19 37 is_stmt 0 view .LVU13
  66 0020 4000     		lsls	r0, r0, #1
  67              	.LVL1:
  68              		.loc 1 19 14 view .LVU14
  69 0022 114B     		ldr	r3, .L9
  70 0024 1861     		str	r0, [r3, #16]
  20:Core/Src/i2c.c ****     while (!(I2C1->SR1 & I2C_SR1_ADDR)); // –Ю–ґ–Є–і–∞–љ–Є–µ —Г—Б—В–∞–љ–Њ–≤–Ї–Є —Д–ї–∞–≥–∞ ADDR
  71              		.loc 1 20 5 is_stmt 1 view .LVU15
  72              	.L4:
  73              		.loc 1 20 12 discriminator 1 view .LVU16
  74              		.loc 1 20 18 is_stmt 0 discriminator 1 view .LVU17
  75 0026 104B     		ldr	r3, .L9
  76 0028 5B69     		ldr	r3, [r3, #20]
  77              		.loc 1 20 12 discriminator 1 view .LVU18
  78 002a 13F0020F 		tst	r3, #2
  79 002e FAD0     		beq	.L4
  21:Core/Src/i2c.c ****     (void)I2C1->SR2;                     // –І—В–µ–љ–Є–µ SR2 –і–ї—П —Б–±—А–Њ—Б–∞ —Д–ї–∞–≥–∞ ADDR
  80              		.loc 1 21 5 is_stmt 1 view .LVU19
  81 0030 0D4B     		ldr	r3, .L9
  82 0032 9869     		ldr	r0, [r3, #24]
  22:Core/Src/i2c.c **** 
  23:Core/Src/i2c.c ****     // –Ю—В–њ—А–∞–≤–Ї–∞ –∞–і—А–µ—Б–∞ —А–µ–≥–Є—Б—В—А–∞
  24:Core/Src/i2c.c ****     I2C1->DR = register_address;
  83              		.loc 1 24 5 view .LVU20
  84              		.loc 1 24 14 is_stmt 0 view .LVU21
  85 0034 1961     		str	r1, [r3, #16]
  25:Core/Src/i2c.c ****     while (!(I2C1->SR1 & I2C_SR1_TXE));  // –Ю–ґ–Є–і–∞–љ–Є–µ —Г—Б—В–∞–љ–Њ–≤–Ї–Є —Д–ї–∞–≥–∞ TXE
  86              		.loc 1 25 5 is_stmt 1 view .LVU22
  87              	.L5:
  88              		.loc 1 25 12 discriminator 1 view .LVU23
  89              		.loc 1 25 18 is_stmt 0 discriminator 1 view .LVU24
  90 0036 0C4B     		ldr	r3, .L9
ARM GAS  C:\Users\Asus\AppData\Local\Temp\ccPXcsTd.s 			page 3


  91 0038 5B69     		ldr	r3, [r3, #20]
  92              		.loc 1 25 12 discriminator 1 view .LVU25
  93 003a 13F0800F 		tst	r3, #128
  94 003e FAD0     		beq	.L5
  26:Core/Src/i2c.c **** 
  27:Core/Src/i2c.c ****     // –Ю—В–њ—А–∞–≤–Ї–∞ –і–∞–љ–љ—Л—Е
  28:Core/Src/i2c.c ****     I2C1->DR = byte;
  95              		.loc 1 28 5 is_stmt 1 view .LVU26
  96              		.loc 1 28 14 is_stmt 0 view .LVU27
  97 0040 094B     		ldr	r3, .L9
  98 0042 1A61     		str	r2, [r3, #16]
  29:Core/Src/i2c.c ****     while (!(I2C1->SR1 & I2C_SR1_TXE));  // –Ю–ґ–Є–і–∞–љ–Є–µ —Г—Б—В–∞–љ–Њ–≤–Ї–Є —Д–ї–∞–≥–∞ TXE
  99              		.loc 1 29 5 is_stmt 1 view .LVU28
 100              	.L6:
 101              		.loc 1 29 12 discriminator 1 view .LVU29
 102              		.loc 1 29 18 is_stmt 0 discriminator 1 view .LVU30
 103 0044 084B     		ldr	r3, .L9
 104 0046 5B69     		ldr	r3, [r3, #20]
 105              		.loc 1 29 12 discriminator 1 view .LVU31
 106 0048 13F0800F 		tst	r3, #128
 107 004c FAD0     		beq	.L6
 108              	.L7:
  30:Core/Src/i2c.c ****     while (!(I2C1->SR1 & I2C_SR1_BTF));  // –Ю–ґ–Є–і–∞–љ–Є–µ –Ј–∞–≤–µ—А—И–µ–љ–Є—П –њ–µ—А–µ–і–∞—З–Є
 109              		.loc 1 30 12 is_stmt 1 discriminator 1 view .LVU32
 110              		.loc 1 30 18 is_stmt 0 discriminator 1 view .LVU33
 111 004e 064B     		ldr	r3, .L9
 112 0050 5B69     		ldr	r3, [r3, #20]
 113              		.loc 1 30 12 discriminator 1 view .LVU34
 114 0052 13F0040F 		tst	r3, #4
 115 0056 FAD0     		beq	.L7
  31:Core/Src/i2c.c ****     
  32:Core/Src/i2c.c ****     // –У–µ–љ–µ—А–∞—Ж–Є—П —Б—В–Њ–њ–Њ–≤–Њ–≥–Њ —Г—Б–ї–Њ–≤–Є—П
  33:Core/Src/i2c.c ****     I2C1->CR1 |= I2C_CR1_STOP;
 116              		.loc 1 33 5 is_stmt 1 view .LVU35
 117              		.loc 1 33 9 is_stmt 0 view .LVU36
 118 0058 034A     		ldr	r2, .L9
 119              	.LVL2:
 120              		.loc 1 33 9 view .LVU37
 121 005a 1368     		ldr	r3, [r2]
 122              		.loc 1 33 15 view .LVU38
 123 005c 43F40073 		orr	r3, r3, #512
 124 0060 1360     		str	r3, [r2]
  34:Core/Src/i2c.c **** }
 125              		.loc 1 34 1 view .LVU39
 126 0062 5DF8044B 		ldr	r4, [sp], #4
 127              	.LCFI1:
 128              		.cfi_restore 4
 129              		.cfi_def_cfa_offset 0
 130 0066 7047     		bx	lr
 131              	.L10:
 132              		.align	2
 133              	.L9:
 134 0068 00540040 		.word	1073763328
 135              		.cfi_endproc
 136              	.LFE130:
 138              		.section	.text.I2C_ReadByte,"ax",%progbits
 139              		.align	1
ARM GAS  C:\Users\Asus\AppData\Local\Temp\ccPXcsTd.s 			page 4


 140              		.global	I2C_ReadByte
 141              		.syntax unified
 142              		.thumb
 143              		.thumb_func
 145              	I2C_ReadByte:
 146              	.LFB131:
  35:Core/Src/i2c.c **** 
  36:Core/Src/i2c.c **** /**
  37:Core/Src/i2c.c ****   * @brief  –І—В–µ–љ–Є–µ –Њ–і–љ–Њ–≥–Њ –±–∞–є—В–∞ –Є–Ј —А–µ–≥–Є—Б—В—А–∞ –і–∞—В—З–Є–Ї–∞.
  38:Core/Src/i2c.c ****   * @param  slave_address: –Р–і—А–µ—Б –і–∞—В—З–Є–Ї–∞ (–љ–∞–њ—А–Є–Љ–µ—А, 0x32)
  39:Core/Src/i2c.c ****   * @param  register_address:  –Р–і—А–µ—Б —А–µ–≥–Є—Б—В—А–∞ –і–ї—П —З—В–µ–љ–Є—П
  40:Core/Src/i2c.c ****   * @param  data:   –Я—А–Њ—З–Є—В–∞–љ–љ—Л–є –±–∞–є—В
  41:Core/Src/i2c.c ****   */
  42:Core/Src/i2c.c ****  void I2C_ReadByte(uint8_t slave_address, uint8_t register_address, uint8_t *data){
 147              		.loc 1 42 83 is_stmt 1 view -0
 148              		.cfi_startproc
 149              		@ args = 0, pretend = 0, frame = 0
 150              		@ frame_needed = 0, uses_anonymous_args = 0
 151              		@ link register save eliminated.
 152              	.LVL3:
 153              		.loc 1 42 83 is_stmt 0 view .LVU41
 154 0000 10B4     		push	{r4}
 155              	.LCFI2:
 156              		.cfi_def_cfa_offset 4
 157              		.cfi_offset 4, -4
 158              	.L12:
  43:Core/Src/i2c.c ****     // –Ц–і—С–Љ, –њ–Њ–Ї–∞ —И–Є–љ–∞ –љ–µ –Њ—Б–≤–Њ–±–Њ–і–Є—В—Б—П
  44:Core/Src/i2c.c ****     while(I2C1->SR2 & I2C_SR2_BUSY);
 159              		.loc 1 44 11 is_stmt 1 discriminator 1 view .LVU42
 160              		.loc 1 44 15 is_stmt 0 discriminator 1 view .LVU43
 161 0002 284B     		ldr	r3, .L21
 162 0004 9B69     		ldr	r3, [r3, #24]
 163              		.loc 1 44 11 discriminator 1 view .LVU44
 164 0006 13F0020F 		tst	r3, #2
 165 000a FAD1     		bne	.L12
  45:Core/Src/i2c.c **** 
  46:Core/Src/i2c.c ****     // –У–µ–љ–µ—А–∞—Ж–Є—П —Б—В–∞—А—В–Њ–≤–Њ–≥–Њ —Г—Б–ї–Њ–≤–Є—П
  47:Core/Src/i2c.c ****     I2C1->CR1 |= I2C_CR1_START;
 166              		.loc 1 47 5 is_stmt 1 view .LVU45
 167              		.loc 1 47 9 is_stmt 0 view .LVU46
 168 000c 254C     		ldr	r4, .L21
 169 000e 2368     		ldr	r3, [r4]
 170              		.loc 1 47 15 view .LVU47
 171 0010 43F48073 		orr	r3, r3, #256
 172 0014 2360     		str	r3, [r4]
  48:Core/Src/i2c.c ****     while (!(I2C1->SR1 & I2C_SR1_SB));   // –Ю–ґ–Є–і–∞–љ–Є–µ —Г—Б—В–∞–љ–Њ–≤–Ї–Є —Д–ї–∞–≥–∞ SB
 173              		.loc 1 48 5 is_stmt 1 view .LVU48
 174              	.L13:
 175              		.loc 1 48 12 discriminator 1 view .LVU49
 176              		.loc 1 48 18 is_stmt 0 discriminator 1 view .LVU50
 177 0016 234B     		ldr	r3, .L21
 178 0018 5B69     		ldr	r3, [r3, #20]
 179              		.loc 1 48 12 discriminator 1 view .LVU51
 180 001a 13F0010F 		tst	r3, #1
 181 001e FAD0     		beq	.L13
  49:Core/Src/i2c.c **** 
  50:Core/Src/i2c.c ****     // –Ю—В–њ—А–∞–≤–Ї–∞ –∞–і—А–µ—Б–∞ —Г—Б—В—А–Њ–є—Б—В–≤–∞ —Б –±–Є—В–Њ–Љ –Ј–∞–њ–Є—Б–Є (0)
ARM GAS  C:\Users\Asus\AppData\Local\Temp\ccPXcsTd.s 			page 5


  51:Core/Src/i2c.c ****     I2C1->DR = (slave_address << 1) | 0;      // –°–і–≤–Є–≥–∞—В—М –∞–і—А–µ—Б –≤–ї–µ–≤–Њ –љ–µ –љ–∞–і
 182              		.loc 1 51 5 is_stmt 1 view .LVU52
 183              		.loc 1 51 37 is_stmt 0 view .LVU53
 184 0020 4300     		lsls	r3, r0, #1
 185              		.loc 1 51 14 view .LVU54
 186 0022 204C     		ldr	r4, .L21
 187 0024 2361     		str	r3, [r4, #16]
  52:Core/Src/i2c.c ****     while (!(I2C1->SR1 & I2C_SR1_ADDR)); // –Ю–ґ–Є–і–∞–љ–Є–µ —Г—Б—В–∞–љ–Њ–≤–Ї–Є —Д–ї–∞–≥–∞ ADDR
 188              		.loc 1 52 5 is_stmt 1 view .LVU55
 189              	.L14:
 190              		.loc 1 52 12 discriminator 1 view .LVU56
 191              		.loc 1 52 18 is_stmt 0 discriminator 1 view .LVU57
 192 0026 1F4B     		ldr	r3, .L21
 193 0028 5B69     		ldr	r3, [r3, #20]
 194              		.loc 1 52 12 discriminator 1 view .LVU58
 195 002a 13F0020F 		tst	r3, #2
 196 002e FAD0     		beq	.L14
  53:Core/Src/i2c.c ****     (void)I2C1->SR2;                     // –І—В–µ–љ–Є–µ SR2 –і–ї—П —Б–±—А–Њ—Б–∞ —Д–ї–∞–≥–∞ ADDR
 197              		.loc 1 53 5 is_stmt 1 view .LVU59
 198 0030 1C4B     		ldr	r3, .L21
 199 0032 9C69     		ldr	r4, [r3, #24]
  54:Core/Src/i2c.c **** 
  55:Core/Src/i2c.c ****     // –Ю—В–њ—А–∞–≤–Ї–∞ –∞–і—А–µ—Б–∞ —А–µ–≥–Є—Б—В—А–∞
  56:Core/Src/i2c.c ****     I2C1->DR = register_address;
 200              		.loc 1 56 5 view .LVU60
 201              		.loc 1 56 14 is_stmt 0 view .LVU61
 202 0034 1961     		str	r1, [r3, #16]
  57:Core/Src/i2c.c ****     while (!(I2C1->SR1 & I2C_SR1_TXE));  // –Ю–ґ–Є–і–∞–љ–Є–µ —Г—Б—В–∞–љ–Њ–≤–Ї–Є —Д–ї–∞–≥–∞ TXE
 203              		.loc 1 57 5 is_stmt 1 view .LVU62
 204              	.L15:
 205              		.loc 1 57 12 discriminator 1 view .LVU63
 206              		.loc 1 57 18 is_stmt 0 discriminator 1 view .LVU64
 207 0036 1B4B     		ldr	r3, .L21
 208 0038 5B69     		ldr	r3, [r3, #20]
 209              		.loc 1 57 12 discriminator 1 view .LVU65
 210 003a 13F0800F 		tst	r3, #128
 211 003e FAD0     		beq	.L15
 212              	.L16:
  58:Core/Src/i2c.c ****     while (!(I2C1->SR1 & I2C_SR1_BTF));  // –Ю–ґ–Є–і–∞–љ–Є–µ –Ј–∞–≤–µ—А—И–µ–љ–Є—П –њ–µ—А–µ–і–∞—З–Є
 213              		.loc 1 58 12 is_stmt 1 discriminator 1 view .LVU66
 214              		.loc 1 58 18 is_stmt 0 discriminator 1 view .LVU67
 215 0040 184B     		ldr	r3, .L21
 216 0042 5B69     		ldr	r3, [r3, #20]
 217              		.loc 1 58 12 discriminator 1 view .LVU68
 218 0044 13F0040F 		tst	r3, #4
 219 0048 FAD0     		beq	.L16
  59:Core/Src/i2c.c **** 
  60:Core/Src/i2c.c ****     // –У–µ–љ–µ—А–∞—Ж–Є—П –њ–Њ–≤—В–Њ—А–љ–Њ–≥–Њ —Б—В–∞—А—В–Њ–≤–Њ–≥–Њ —Г—Б–ї–Њ–≤–Є—П –і–ї—П —З—В–µ–љ–
  61:Core/Src/i2c.c ****     I2C1->CR1 |= I2C_CR1_START;
 220              		.loc 1 61 5 is_stmt 1 view .LVU69
 221              		.loc 1 61 9 is_stmt 0 view .LVU70
 222 004a 1649     		ldr	r1, .L21
 223              	.LVL4:
 224              		.loc 1 61 9 view .LVU71
 225 004c 0B68     		ldr	r3, [r1]
 226              		.loc 1 61 15 view .LVU72
 227 004e 43F48073 		orr	r3, r3, #256
ARM GAS  C:\Users\Asus\AppData\Local\Temp\ccPXcsTd.s 			page 6


 228 0052 0B60     		str	r3, [r1]
  62:Core/Src/i2c.c ****     while (!(I2C1->SR1 & I2C_SR1_SB));   // –Ю–ґ–Є–і–∞–љ–Є–µ —Г—Б—В–∞–љ–Њ–≤–Ї–Є —Д–ї–∞–≥–∞ SB
 229              		.loc 1 62 5 is_stmt 1 view .LVU73
 230              	.L17:
 231              		.loc 1 62 12 discriminator 1 view .LVU74
 232              		.loc 1 62 18 is_stmt 0 discriminator 1 view .LVU75
 233 0054 134B     		ldr	r3, .L21
 234 0056 5B69     		ldr	r3, [r3, #20]
 235              		.loc 1 62 12 discriminator 1 view .LVU76
 236 0058 13F0010F 		tst	r3, #1
 237 005c FAD0     		beq	.L17
  63:Core/Src/i2c.c **** 
  64:Core/Src/i2c.c ****     // –Ю—В–њ—А–∞–≤–Ї–∞ –∞–і—А–µ—Б–∞ —Г—Б—В—А–Њ–є—Б—В–≤–∞ —Б –±–Є—В–Њ–Љ —З—В–µ–љ–Є—П (1)
  65:Core/Src/i2c.c ****     I2C1->DR = (slave_address << 1) | 1; // –°–і–≤–Є–≥ –∞–і—А–µ—Б–∞ –≤–ї–µ–≤–Њ –Є —Г—Б—В–∞–љ–Њ–≤–Ї–
 238              		.loc 1 65 5 is_stmt 1 view .LVU77
 239              		.loc 1 65 31 is_stmt 0 view .LVU78
 240 005e 4000     		lsls	r0, r0, #1
 241              	.LVL5:
 242              		.loc 1 65 37 view .LVU79
 243 0060 40F00100 		orr	r0, r0, #1
 244              		.loc 1 65 14 view .LVU80
 245 0064 0F4B     		ldr	r3, .L21
 246 0066 1861     		str	r0, [r3, #16]
  66:Core/Src/i2c.c ****     while (!(I2C1->SR1 & I2C_SR1_ADDR)); // –Ю–ґ–Є–і–∞–љ–Є–µ —Г—Б—В–∞–љ–Њ–≤–Ї–Є —Д–ї–∞–≥–∞ ADDR
 247              		.loc 1 66 5 is_stmt 1 view .LVU81
 248              	.L18:
 249              		.loc 1 66 12 discriminator 1 view .LVU82
 250              		.loc 1 66 18 is_stmt 0 discriminator 1 view .LVU83
 251 0068 0E4B     		ldr	r3, .L21
 252 006a 5B69     		ldr	r3, [r3, #20]
 253              		.loc 1 66 12 discriminator 1 view .LVU84
 254 006c 13F0020F 		tst	r3, #2
 255 0070 FAD0     		beq	.L18
  67:Core/Src/i2c.c ****     (void)I2C1->SR2;                     // –І—В–µ–љ–Є–µ SR2 –і–ї—П —Б–±—А–Њ—Б–∞ —Д–ї–∞–≥–∞ ADDR
 256              		.loc 1 67 5 is_stmt 1 view .LVU85
 257 0072 0C4B     		ldr	r3, .L21
 258 0074 9969     		ldr	r1, [r3, #24]
  68:Core/Src/i2c.c **** 
  69:Core/Src/i2c.c ****     // –Ю–ґ–Є–і–∞–љ–Є–µ –њ–Њ–ї—Г—З–µ–љ–Є—П –і–∞–љ–љ—Л—Е
  70:Core/Src/i2c.c ****     I2C1->CR1 &= ~I2C_CR1_ACK; // –Ю—В–Ї–ї—О—З–µ–љ–Є–µ –њ–Њ–і—В–≤–µ—А–ґ–і–µ–љ–Є—П –і–ї—П –њ–Њ—Б–ї–µ
 259              		.loc 1 70 5 view .LVU86
 260              		.loc 1 70 9 is_stmt 0 view .LVU87
 261 0076 1968     		ldr	r1, [r3]
 262              		.loc 1 70 15 view .LVU88
 263 0078 21F48061 		bic	r1, r1, #1024
 264 007c 1960     		str	r1, [r3]
  71:Core/Src/i2c.c ****     while (!(I2C1->SR1 & I2C_SR1_RXNE));  // –Ю–ґ–Є–і–∞–љ–Є–µ —Г—Б—В–∞–љ–Њ–≤–Ї–Є —Д–ї–∞–≥–∞ RXNE
 265              		.loc 1 71 5 is_stmt 1 view .LVU89
 266              	.L19:
 267              		.loc 1 71 12 discriminator 1 view .LVU90
 268              		.loc 1 71 18 is_stmt 0 discriminator 1 view .LVU91
 269 007e 094B     		ldr	r3, .L21
 270 0080 5B69     		ldr	r3, [r3, #20]
 271              		.loc 1 71 12 discriminator 1 view .LVU92
 272 0082 13F0400F 		tst	r3, #64
 273 0086 FAD0     		beq	.L19
  72:Core/Src/i2c.c **** 
ARM GAS  C:\Users\Asus\AppData\Local\Temp\ccPXcsTd.s 			page 7


  73:Core/Src/i2c.c ****     *data = I2C1->DR;                     // –І—В–µ–љ–Є–µ –і–∞–љ–љ—Л—Е –Є–Ј —А–µ–≥–Є—Б—В—А–∞ DR
 274              		.loc 1 73 5 is_stmt 1 view .LVU93
 275              		.loc 1 73 17 is_stmt 0 view .LVU94
 276 0088 064B     		ldr	r3, .L21
 277 008a 1969     		ldr	r1, [r3, #16]
 278              		.loc 1 73 11 view .LVU95
 279 008c 1170     		strb	r1, [r2]
  74:Core/Src/i2c.c **** 
  75:Core/Src/i2c.c ****     // –У–µ–љ–µ—А–∞—Ж–Є—П —Б—В–Њ–њ–Њ–≤–Њ–≥–Њ —Г—Б–ї–Њ–≤–Є—П
  76:Core/Src/i2c.c ****     I2C1->CR1 |= I2C_CR1_STOP;
 280              		.loc 1 76 5 is_stmt 1 view .LVU96
 281              		.loc 1 76 9 is_stmt 0 view .LVU97
 282 008e 1A68     		ldr	r2, [r3]
 283              	.LVL6:
 284              		.loc 1 76 15 view .LVU98
 285 0090 42F40072 		orr	r2, r2, #512
 286 0094 1A60     		str	r2, [r3]
  77:Core/Src/i2c.c ****     I2C1->CR1 |= I2C_CR1_ACK;  // –≤–µ—А–љ—Г—В—М ACK –і–ї—П –±—Г–і—Г—Й–Є—Е –Њ–њ–µ—А–∞—Ж–Є–є
 287              		.loc 1 77 5 is_stmt 1 view .LVU99
 288              		.loc 1 77 9 is_stmt 0 view .LVU100
 289 0096 1A68     		ldr	r2, [r3]
 290              		.loc 1 77 15 view .LVU101
 291 0098 42F48062 		orr	r2, r2, #1024
 292 009c 1A60     		str	r2, [r3]
  78:Core/Src/i2c.c ****  }...
 293              		.loc 1 78 2 view .LVU102
 294 009e 5DF8044B 		ldr	r4, [sp], #4
 295              	.LCFI3:
 296              		.cfi_restore 4
 297              		.cfi_def_cfa_offset 0
 298 00a2 7047     		bx	lr
 299              	.L22:
 300              		.align	2
 301              	.L21:
 302 00a4 00540040 		.word	1073763328
 303              		.cfi_endproc
 304              	.LFE131:
 306              		.text
 307              	.Letext0:
 308              		.file 2 "C:/Programm/tools/xpack-arm-none-eabi-gcc-14.2.1-1.1/arm-none-eabi/include/machine/_defau
 309              		.file 3 "C:/Programm/tools/xpack-arm-none-eabi-gcc-14.2.1-1.1/arm-none-eabi/include/sys/_stdint.h"
 310              		.file 4 "CMSIS/Devices/STM32F4xx/Inc/STM32F411xE/stm32f411xe.h"
ARM GAS  C:\Users\Asus\AppData\Local\Temp\ccPXcsTd.s 			page 8

