ARM GAS  C:\Users\nip6\AppData\Local\Temp\ccK3neGA.s 			page 1


   1              		.cpu cortex-m4
   2              		.arch armv7e-m
   3              		.fpu fpv4-sp-d16
   4              		.eabi_attribute 27, 1
   5              		.eabi_attribute 28, 1
   6              		.eabi_attribute 20, 1
   7              		.eabi_attribute 21, 1
   8              		.eabi_attribute 23, 3
   9              		.eabi_attribute 24, 1
  10              		.eabi_attribute 25, 1
  11              		.eabi_attribute 26, 1
  12              		.eabi_attribute 30, 1
  13              		.eabi_attribute 34, 1
  14              		.eabi_attribute 18, 4
  15              		.file	"main.c"
  16              		.text
  17              	.Ltext0:
  18              		.cfi_sections	.debug_frame
  19              		.file 1 "Core/Src/main.c"
  20              		.section	.text.main,"ax",%progbits
  21              		.align	1
  22              		.global	main
  23              		.syntax unified
  24              		.thumb
  25              		.thumb_func
  27              	main:
  28              	.LFB130:
   1:Core/Src/main.c **** #include "interrupt.h"
   2:Core/Src/main.c **** #include "i2c.h"
   3:Core/Src/main.c **** #include "lsm303dlhc.h"
   4:Core/Src/main.c **** 
   5:Core/Src/main.c **** volatile uint16_t adc_buf[ADC_NUM_CHANNEL - 1], adcInter;
   6:Core/Src/main.c **** volatile uint8_t adc_conversion_complete, adc_overrun_count;
   7:Core/Src/main.c **** 
   8:Core/Src/main.c **** uint16_t GlobalTickCount, adc_value[ADC_NUM_CHANNEL - 1];
   9:Core/Src/main.c **** 
  10:Core/Src/main.c **** uint8_t data_accel[6], data_magnetic[6], dat;
  11:Core/Src/main.c **** int16_t accel[3], magnetic[3];
  12:Core/Src/main.c **** int16_t x_accel, y_accel, z_accel;
  13:Core/Src/main.c **** float x_roll, y_pitch, z_yaw, x_north, y_east, z_down;
  14:Core/Src/main.c **** float x_magnetic, y_magnetic, z_magnetic;
  15:Core/Src/main.c **** 
  16:Core/Src/main.c **** int main(void)
  17:Core/Src/main.c **** {
  29              		.loc 1 17 1 view -0
  30              		.cfi_startproc
  31              		@ Volatile: function does not return.
  32              		@ args = 0, pretend = 0, frame = 0
  33              		@ frame_needed = 0, uses_anonymous_args = 0
  34 0000 08B5     		push	{r3, lr}
  35              	.LCFI0:
  36              		.cfi_def_cfa_offset 8
  37              		.cfi_offset 3, -8
  38              		.cfi_offset 14, -4
  18:Core/Src/main.c ****     RCC_Init();
  39              		.loc 1 18 5 view .LVU1
  40 0002 FFF7FEFF 		bl	RCC_Init
ARM GAS  C:\Users\nip6\AppData\Local\Temp\ccK3neGA.s 			page 2


  41              	.LVL0:
  19:Core/Src/main.c ****     GPIO_Init();
  42              		.loc 1 19 5 view .LVU2
  43 0006 FFF7FEFF 		bl	GPIO_Init
  44              	.LVL1:
  20:Core/Src/main.c ****     SysTick_Init();
  45              		.loc 1 20 5 view .LVU3
  46 000a FFF7FEFF 		bl	SysTick_Init
  47              	.LVL2:
  21:Core/Src/main.c ****     /*ะะดะตัั ะฒะฐะถะตะฝ ะฟะพััะดะพะบ ะธะฝะธัะธะฐะปะธะทะฐัะธะธ, ัะฐะบ ะบะฐะบ ะะฆะ ะดะพะปะ
  22:Core/Src/main.c ****      *ะฐ DMA ะดะพ ัะฐะนะผะตัะฐ, ะบะพัะพััะน ะทะฐะฟััะบะฐะตั ะฟัะตะพะฑัะฐะทะพะฒะฐะฝะธะต
  23:Core/Src/main.c ****      */
  24:Core/Src/main.c ****     ADC_Init();
  48              		.loc 1 24 5 view .LVU4
  49 000e FFF7FEFF 		bl	ADC_Init
  50              	.LVL3:
  25:Core/Src/main.c ****     DMA_Init();
  51              		.loc 1 25 5 view .LVU5
  52 0012 FFF7FEFF 		bl	DMA_Init
  53              	.LVL4:
  26:Core/Src/main.c ****     TIM_PWM_Init();
  54              		.loc 1 26 5 view .LVU6
  55 0016 FFF7FEFF 		bl	TIM_PWM_Init
  56              	.LVL5:
  27:Core/Src/main.c ****     I2C_Init();
  57              		.loc 1 27 5 view .LVU7
  58 001a FFF7FEFF 		bl	I2C_Init
  59              	.LVL6:
  28:Core/Src/main.c **** 
  29:Core/Src/main.c ****     // func2();
  30:Core/Src/main.c ****     func1();
  60              		.loc 1 30 5 view .LVU8
  61 001e FFF7FEFF 		bl	func1
  62              	.LVL7:
  31:Core/Src/main.c **** 
  32:Core/Src/main.c ****     /*--------ะะบัะตะปะตัะพะผะตัั--------*/
  33:Core/Src/main.c ****     I2C_WriteByte(0x19, 0x20, 0x57); // ะะบัะธะฒะธััะตะผ ะฐะบัะตะปะตัะพะผะตัั (ัะตะถะธะผ n
  63              		.loc 1 33 5 view .LVU9
  64 0022 5722     		movs	r2, #87
  65 0024 2021     		movs	r1, #32
  66 0026 1920     		movs	r0, #25
  67 0028 FFF7FEFF 		bl	I2C_WriteByte
  68              	.LVL8:
  34:Core/Src/main.c ****     I2C_WriteByte(0x19, 0x23, 0x08); // ะฃััะฐะฝะฐะฒะปะธะฒะฐะตะผ ัะตะถะธะผ ะฒััะพะดะฐ ะฒััะพ
  69              		.loc 1 34 5 view .LVU10
  70 002c 0822     		movs	r2, #8
  71 002e 2321     		movs	r1, #35
  72 0030 1920     		movs	r0, #25
  73 0032 FFF7FEFF 		bl	I2C_WriteByte
  74              	.LVL9:
  35:Core/Src/main.c ****     /*--------ะะฐะณะฝะธัะพะผะตัั--------*/
  36:Core/Src/main.c ****     I2C_WriteByte(0x1e, 0x00, 0x1c); // ะฃััะฐะฝะฐะฒะปะธะฒะฐะตะผ ะผะธะฝะธะผะฐะปัะฝัั ัะบะพัะ
  75              		.loc 1 36 5 view .LVU11
  76 0036 1C22     		movs	r2, #28
  77 0038 0021     		movs	r1, #0
  78 003a 1E20     		movs	r0, #30
  79 003c FFF7FEFF 		bl	I2C_WriteByte
ARM GAS  C:\Users\nip6\AppData\Local\Temp\ccK3neGA.s 			page 3


  80              	.LVL10:
  37:Core/Src/main.c ****     I2C_WriteByte(0x1e, 0x01, 0x20); // ะฃััะฐะฝะฐะฒะปะธะฒะฐะตะผ ััะธะปะธัะตะปั ะฝะฐ ยฑ1.3 ะ
  81              		.loc 1 37 5 view .LVU12
  82 0040 2022     		movs	r2, #32
  83 0042 0121     		movs	r1, #1
  84 0044 1E20     		movs	r0, #30
  85 0046 FFF7FEFF 		bl	I2C_WriteByte
  86              	.LVL11:
  38:Core/Src/main.c ****     I2C_WriteByte(0x1e, 0x02, 0x00); // ะฃััะฐะฝะฐะฒะปะธะฒะฐะตะผ ัะตะถะธะผ ะฝะตะฟัะตััะฒะฝะพะ
  87              		.loc 1 38 5 view .LVU13
  88 004a 0022     		movs	r2, #0
  89 004c 0221     		movs	r1, #2
  90 004e 1E20     		movs	r0, #30
  91 0050 FFF7FEFF 		bl	I2C_WriteByte
  92              	.LVL12:
  93              	.L2:
  39:Core/Src/main.c **** 
  40:Core/Src/main.c ****     while (1)
  94              		.loc 1 40 5 view .LVU14
  41:Core/Src/main.c ****     {   
  42:Core/Src/main.c ****         I2C_ReadByte(0x19, 0x20, &dat);
  95              		.loc 1 42 9 view .LVU15
  96 0054 4C4A     		ldr	r2, .L4
  97 0056 2021     		movs	r1, #32
  98 0058 1920     		movs	r0, #25
  99 005a FFF7FEFF 		bl	I2C_ReadByte
 100              	.LVL13:
  43:Core/Src/main.c ****         // I2C_ReadByte(0x19, 0x28, &data_accel[0]); // ะัั ะฅ, ะผะปะฐะดัะธะน ะฑะฐะนั
  44:Core/Src/main.c ****         // I2C_ReadByte(0x19, 0x29, &data_accel[1]); // ะัั ะฅ, ััะฐััะธะน ะฑะฐะนั
  45:Core/Src/main.c ****         // I2C_ReadByte(0x19, 0x2A, &data_accel[2]); // ะัั Y, ะผะปะฐะดัะธะน ะฑะฐะนั
  46:Core/Src/main.c ****         // I2C_ReadByte(0x19, 0x2B, &data_accel[3]); // ะัั Y, ััะฐััะธะน ะฑะฐะนั
  47:Core/Src/main.c ****         // I2C_ReadByte(0x19, 0x2C, &data_accel[4]); // ะัั Z, ะผะปะฐะดัะธะน ะฑะฐะนั
  48:Core/Src/main.c ****         // I2C_ReadByte(0x19, 0x2D, &data_accel[5]); // ะัั Z, ััะฐััะธะน ะฑะฐะนั
  49:Core/Src/main.c ****         I2C_ReadMultiple(0x19, 0xa8, data_accel, 6);
 101              		.loc 1 49 9 view .LVU16
 102 005e 4B4C     		ldr	r4, .L4+4
 103 0060 0623     		movs	r3, #6
 104 0062 2246     		mov	r2, r4
 105 0064 A821     		movs	r1, #168
 106 0066 1920     		movs	r0, #25
 107 0068 FFF7FEFF 		bl	I2C_ReadMultiple
 108              	.LVL14:
  50:Core/Src/main.c ****         accel[0] = (int16_t)((data_accel[1] << 8) | data_accel[0]); // ะะพะผะฑะธะฝะธัะพะฒะฐะฝะธะต
 109              		.loc 1 50 9 view .LVU17
 110              		.loc 1 50 41 is_stmt 0 view .LVU18
 111 006c 6378     		ldrb	r3, [r4, #1]	@ zero_extendqisi2
 112              		.loc 1 50 63 view .LVU19
 113 006e 2178     		ldrb	r1, [r4]	@ zero_extendqisi2
 114              		.loc 1 50 20 view .LVU20
 115 0070 41EA0321 		orr	r1, r1, r3, lsl #8
 116 0074 09B2     		sxth	r1, r1
 117              		.loc 1 50 18 view .LVU21
 118 0076 4648     		ldr	r0, .L4+8
 119 0078 0180     		strh	r1, [r0]	@ movhi
  51:Core/Src/main.c ****         accel[1] = (int16_t)((data_accel[3] << 8) | data_accel[2]); // ะะพะผะฑะธะฝะธัะพะฒะฐะฝะธะต
 120              		.loc 1 51 9 is_stmt 1 view .LVU22
 121              		.loc 1 51 41 is_stmt 0 view .LVU23
ARM GAS  C:\Users\nip6\AppData\Local\Temp\ccK3neGA.s 			page 4


 122 007a E378     		ldrb	r3, [r4, #3]	@ zero_extendqisi2
 123              		.loc 1 51 63 view .LVU24
 124 007c A278     		ldrb	r2, [r4, #2]	@ zero_extendqisi2
 125              		.loc 1 51 20 view .LVU25
 126 007e 42EA0322 		orr	r2, r2, r3, lsl #8
 127 0082 12B2     		sxth	r2, r2
 128              		.loc 1 51 18 view .LVU26
 129 0084 4280     		strh	r2, [r0, #2]	@ movhi
  52:Core/Src/main.c ****         accel[2] = (int16_t)((data_accel[5] << 8) | data_accel[4]); // ะะพะผะฑะธะฝะธัะพะฒะฐะฝะธะต
 130              		.loc 1 52 9 is_stmt 1 view .LVU27
 131              		.loc 1 52 41 is_stmt 0 view .LVU28
 132 0086 94F805C0 		ldrb	ip, [r4, #5]	@ zero_extendqisi2
 133              		.loc 1 52 63 view .LVU29
 134 008a 2379     		ldrb	r3, [r4, #4]	@ zero_extendqisi2
 135              		.loc 1 52 20 view .LVU30
 136 008c 43EA0C23 		orr	r3, r3, ip, lsl #8
 137 0090 1BB2     		sxth	r3, r3
 138              		.loc 1 52 18 view .LVU31
 139 0092 8380     		strh	r3, [r0, #4]	@ movhi
  53:Core/Src/main.c ****         x_accel = accel[0] >> 4; // ะกะดะฒะธะณ ะฝะฐ 4 ะฑะธัะฐ ะดะปั ะฟะพะปััะตะฝะธั ะทะฝะฐัะต
 140              		.loc 1 53 9 is_stmt 1 view .LVU32
 141              		.loc 1 53 17 is_stmt 0 view .LVU33
 142 0094 0911     		asrs	r1, r1, #4
 143 0096 3F48     		ldr	r0, .L4+12
 144 0098 0180     		strh	r1, [r0]	@ movhi
  54:Core/Src/main.c ****         y_accel = accel[1] >> 4; // ะกะดะฒะธะณ ะฝะฐ 4 ะฑะธัะฐ ะดะปั ะฟะพะปััะตะฝะธั ะทะฝะฐัะต
 145              		.loc 1 54 9 is_stmt 1 view .LVU34
 146              		.loc 1 54 17 is_stmt 0 view .LVU35
 147 009a 1211     		asrs	r2, r2, #4
 148 009c 3E48     		ldr	r0, .L4+16
 149 009e 0280     		strh	r2, [r0]	@ movhi
  55:Core/Src/main.c ****         z_accel = accel[2] >> 4; // ะกะดะฒะธะณ ะฝะฐ 4 ะฑะธัะฐ ะดะปั ะฟะพะปััะตะฝะธั ะทะฝะฐัะต
 150              		.loc 1 55 9 is_stmt 1 view .LVU36
 151              		.loc 1 55 17 is_stmt 0 view .LVU37
 152 00a0 1B11     		asrs	r3, r3, #4
 153 00a2 3E48     		ldr	r0, .L4+20
 154 00a4 0380     		strh	r3, [r0]	@ movhi
  56:Core/Src/main.c ****         x_roll = x_accel * 0.001f * 9.81f; // ะะพัะบะพะปัะบั ะผั ะธัะฟะพะปัะทัะตะผ ัะตะถะธ
 155              		.loc 1 56 9 is_stmt 1 view .LVU38
 156              		.loc 1 56 26 is_stmt 0 view .LVU39
 157 00a6 07EE901A 		vmov	s15, r1	@ int
 158 00aa F8EEE77A 		vcvt.f32.s32	s15, s15
 159 00ae DFED3C6A 		vldr.32	s13, .L4+24
 160 00b2 67EEA67A 		vmul.f32	s15, s15, s13
 161              		.loc 1 56 35 view .LVU40
 162 00b6 9FED3B7A 		vldr.32	s14, .L4+28
 163 00ba 67EE877A 		vmul.f32	s15, s15, s14
 164              		.loc 1 56 16 view .LVU41
 165 00be 3A49     		ldr	r1, .L4+32
 166 00c0 C1ED007A 		vstr.32	s15, [r1]
  57:Core/Src/main.c ****         y_pitch = y_accel * 0.001f * 9.81f; // ะะฐะปััะต ัะผะฝะพะถะฐะตะผ ะฝะฐ 9.81 ะดะปั ะฟะพะ
 167              		.loc 1 57 9 is_stmt 1 view .LVU42
 168              		.loc 1 57 27 is_stmt 0 view .LVU43
 169 00c4 07EE902A 		vmov	s15, r2	@ int
 170 00c8 F8EEE77A 		vcvt.f32.s32	s15, s15
 171 00cc 67EEA67A 		vmul.f32	s15, s15, s13
 172              		.loc 1 57 36 view .LVU44
ARM GAS  C:\Users\nip6\AppData\Local\Temp\ccK3neGA.s 			page 5


 173 00d0 67EE877A 		vmul.f32	s15, s15, s14
 174              		.loc 1 57 17 view .LVU45
 175 00d4 354A     		ldr	r2, .L4+36
 176 00d6 C2ED007A 		vstr.32	s15, [r2]
  58:Core/Src/main.c ****         z_yaw = z_accel * 0.001f * 9.81f;
 177              		.loc 1 58 9 is_stmt 1 view .LVU46
 178              		.loc 1 58 25 is_stmt 0 view .LVU47
 179 00da 07EE903A 		vmov	s15, r3	@ int
 180 00de F8EEE77A 		vcvt.f32.s32	s15, s15
 181 00e2 67EEA67A 		vmul.f32	s15, s15, s13
 182              		.loc 1 58 34 view .LVU48
 183 00e6 67EE877A 		vmul.f32	s15, s15, s14
 184              		.loc 1 58 15 view .LVU49
 185 00ea 314B     		ldr	r3, .L4+40
 186 00ec C3ED007A 		vstr.32	s15, [r3]
  59:Core/Src/main.c **** 
  60:Core/Src/main.c ****         // I2C_ReadByte(0x1e, 0x03, &data_magnetic[0]); // ะัั ะฅ, ััะฐััะธะน ะฑะฐะนั
  61:Core/Src/main.c ****         // I2C_ReadByte(0x1e, 0x04, &data_magnetic[1]); // ะัั ะฅ, ะผะปะฐะดัะธะน ะฑะฐะนั
  62:Core/Src/main.c ****         // I2C_ReadByte(0x1e, 0x07, &data_magnetic[2]); // ะัั Y, ััะฐััะธะน ะฑะฐะนั
  63:Core/Src/main.c ****         // I2C_ReadByte(0x1e, 0x08, &data_magnetic[3]); // ะัั Y, ะผะปะฐะดัะธะน ะฑะฐะนั
  64:Core/Src/main.c ****         // I2C_ReadByte(0x1e, 0x05, &data_magnetic[4]); // ะัั Z, ััะฐััะธะน ะฑะฐะนั
  65:Core/Src/main.c ****         // I2C_ReadByte(0x1e, 0x06, &data_magnetic[5]); // ะัั Z, ะผะปะฐะดัะธะน ะฑะฐะนั
  66:Core/Src/main.c ****         I2C_ReadMultiple(0x1e, 0x83, data_magnetic, 6);
 187              		.loc 1 66 9 is_stmt 1 view .LVU50
 188 00f0 304C     		ldr	r4, .L4+44
 189 00f2 0623     		movs	r3, #6
 190 00f4 2246     		mov	r2, r4
 191 00f6 8321     		movs	r1, #131
 192 00f8 1E20     		movs	r0, #30
 193 00fa FFF7FEFF 		bl	I2C_ReadMultiple
 194              	.LVL15:
  67:Core/Src/main.c ****         magnetic[0] = (int16_t)((data_magnetic[0] << 8) | data_magnetic[1]);
 195              		.loc 1 67 9 view .LVU51
 196              		.loc 1 67 47 is_stmt 0 view .LVU52
 197 00fe 2378     		ldrb	r3, [r4]	@ zero_extendqisi2
 198              		.loc 1 67 72 view .LVU53
 199 0100 6178     		ldrb	r1, [r4, #1]	@ zero_extendqisi2
 200              		.loc 1 67 23 view .LVU54
 201 0102 41EA0321 		orr	r1, r1, r3, lsl #8
 202 0106 09B2     		sxth	r1, r1
 203              		.loc 1 67 21 view .LVU55
 204 0108 2B48     		ldr	r0, .L4+48
 205 010a 0180     		strh	r1, [r0]	@ movhi
  68:Core/Src/main.c ****         magnetic[1] = (int16_t)((data_magnetic[2] << 8) | data_magnetic[3]);
 206              		.loc 1 68 9 is_stmt 1 view .LVU56
 207              		.loc 1 68 47 is_stmt 0 view .LVU57
 208 010c A378     		ldrb	r3, [r4, #2]	@ zero_extendqisi2
 209              		.loc 1 68 72 view .LVU58
 210 010e E278     		ldrb	r2, [r4, #3]	@ zero_extendqisi2
 211              		.loc 1 68 23 view .LVU59
 212 0110 42EA0322 		orr	r2, r2, r3, lsl #8
 213 0114 12B2     		sxth	r2, r2
 214              		.loc 1 68 21 view .LVU60
 215 0116 4280     		strh	r2, [r0, #2]	@ movhi
  69:Core/Src/main.c ****         magnetic[2] = (int16_t)((data_magnetic[4] << 8) | data_magnetic[5]);
 216              		.loc 1 69 9 is_stmt 1 view .LVU61
 217              		.loc 1 69 47 is_stmt 0 view .LVU62
ARM GAS  C:\Users\nip6\AppData\Local\Temp\ccK3neGA.s 			page 6


 218 0118 94F804C0 		ldrb	ip, [r4, #4]	@ zero_extendqisi2
 219              		.loc 1 69 72 view .LVU63
 220 011c 6379     		ldrb	r3, [r4, #5]	@ zero_extendqisi2
 221              		.loc 1 69 23 view .LVU64
 222 011e 43EA0C23 		orr	r3, r3, ip, lsl #8
 223 0122 1BB2     		sxth	r3, r3
 224              		.loc 1 69 21 view .LVU65
 225 0124 8380     		strh	r3, [r0, #4]	@ movhi
  70:Core/Src/main.c ****         x_magnetic = magnetic[0] / 1100.0f; // ะัะตะพะฑัะฐะทะพะฒะฐะฝะธะต ะฒ ะะฐัััั (ะดะปั
 226              		.loc 1 70 9 is_stmt 1 view .LVU66
 227              		.loc 1 70 34 is_stmt 0 view .LVU67
 228 0126 07EE901A 		vmov	s15, r1	@ int
 229 012a F8EEE77A 		vcvt.f32.s32	s15, s15
 230 012e 9FED237A 		vldr.32	s14, .L4+52
 231 0132 87EE876A 		vdiv.f32	s12, s15, s14
 232              		.loc 1 70 20 view .LVU68
 233 0136 2249     		ldr	r1, .L4+56
 234 0138 81ED006A 		vstr.32	s12, [r1]
  71:Core/Src/main.c ****         y_magnetic = magnetic[1] / 1100.0f;
 235              		.loc 1 71 9 is_stmt 1 view .LVU69
 236              		.loc 1 71 34 is_stmt 0 view .LVU70
 237 013c 07EE902A 		vmov	s15, r2	@ int
 238 0140 F8EEE77A 		vcvt.f32.s32	s15, s15
 239 0144 C7EE876A 		vdiv.f32	s13, s15, s14
 240              		.loc 1 71 20 view .LVU71
 241 0148 1E4A     		ldr	r2, .L4+60
 242 014a C2ED006A 		vstr.32	s13, [r2]
  72:Core/Src/main.c ****         z_magnetic = magnetic[2] / 980.0f;
 243              		.loc 1 72 9 is_stmt 1 view .LVU72
 244              		.loc 1 72 34 is_stmt 0 view .LVU73
 245 014e 07EE903A 		vmov	s15, r3	@ int
 246 0152 F8EEE77A 		vcvt.f32.s32	s15, s15
 247 0156 DFED1C5A 		vldr.32	s11, .L4+64
 248 015a 87EEA57A 		vdiv.f32	s14, s15, s11
 249              		.loc 1 72 20 view .LVU74
 250 015e 1B4B     		ldr	r3, .L4+68
 251 0160 83ED007A 		vstr.32	s14, [r3]
  73:Core/Src/main.c ****         x_north = x_magnetic * 1000.0f; // ะัะตะพะฑัะฐะทะพะฒะฐะฝะธะต ะฒ ะผะะฐัััั ะดะปั ั
 252              		.loc 1 73 9 is_stmt 1 view .LVU75
 253              		.loc 1 73 30 is_stmt 0 view .LVU76
 254 0164 DFED1A7A 		vldr.32	s15, .L4+72
 255 0168 26EE276A 		vmul.f32	s12, s12, s15
 256              		.loc 1 73 17 view .LVU77
 257 016c 194B     		ldr	r3, .L4+76
 258 016e 83ED006A 		vstr.32	s12, [r3]
  74:Core/Src/main.c ****         y_east = y_magnetic * 1000.0f;
 259              		.loc 1 74 9 is_stmt 1 view .LVU78
 260              		.loc 1 74 29 is_stmt 0 view .LVU79
 261 0172 66EEA76A 		vmul.f32	s13, s13, s15
 262              		.loc 1 74 16 view .LVU80
 263 0176 184B     		ldr	r3, .L4+80
 264 0178 C3ED006A 		vstr.32	s13, [r3]
  75:Core/Src/main.c ****         z_down = z_magnetic * 1000.0f;
 265              		.loc 1 75 9 is_stmt 1 discriminator 1 view .LVU81
 266              		.loc 1 75 29 is_stmt 0 discriminator 1 view .LVU82
 267 017c 27EE277A 		vmul.f32	s14, s14, s15
 268              		.loc 1 75 16 discriminator 1 view .LVU83
ARM GAS  C:\Users\nip6\AppData\Local\Temp\ccK3neGA.s 			page 7


 269 0180 164B     		ldr	r3, .L4+84
 270 0182 83ED007A 		vstr.32	s14, [r3]
  40:Core/Src/main.c ****     {   
 271              		.loc 1 40 11 is_stmt 1 view .LVU84
 272 0186 65E7     		b	.L2
 273              	.L5:
 274              		.align	2
 275              	.L4:
 276 0188 00000000 		.word	dat
 277 018c 00000000 		.word	data_accel
 278 0190 00000000 		.word	accel
 279 0194 00000000 		.word	x_accel
 280 0198 00000000 		.word	y_accel
 281 019c 00000000 		.word	z_accel
 282 01a0 6F12833A 		.word	981668463
 283 01a4 C3F51C41 		.word	1092416963
 284 01a8 00000000 		.word	x_roll
 285 01ac 00000000 		.word	y_pitch
 286 01b0 00000000 		.word	z_yaw
 287 01b4 00000000 		.word	data_magnetic
 288 01b8 00000000 		.word	magnetic
 289 01bc 00808944 		.word	1149861888
 290 01c0 00000000 		.word	x_magnetic
 291 01c4 00000000 		.word	y_magnetic
 292 01c8 00007544 		.word	1148518400
 293 01cc 00000000 		.word	z_magnetic
 294 01d0 00007A44 		.word	1148846080
 295 01d4 00000000 		.word	x_north
 296 01d8 00000000 		.word	y_east
 297 01dc 00000000 		.word	z_down
 298              		.cfi_endproc
 299              	.LFE130:
 301              		.global	z_magnetic
 302              		.section	.bss.z_magnetic,"aw",%nobits
 303              		.align	2
 306              	z_magnetic:
 307 0000 00000000 		.space	4
 308              		.global	y_magnetic
 309              		.section	.bss.y_magnetic,"aw",%nobits
 310              		.align	2
 313              	y_magnetic:
 314 0000 00000000 		.space	4
 315              		.global	x_magnetic
 316              		.section	.bss.x_magnetic,"aw",%nobits
 317              		.align	2
 320              	x_magnetic:
 321 0000 00000000 		.space	4
 322              		.global	z_down
 323              		.section	.bss.z_down,"aw",%nobits
 324              		.align	2
 327              	z_down:
 328 0000 00000000 		.space	4
 329              		.global	y_east
 330              		.section	.bss.y_east,"aw",%nobits
 331              		.align	2
 334              	y_east:
 335 0000 00000000 		.space	4
ARM GAS  C:\Users\nip6\AppData\Local\Temp\ccK3neGA.s 			page 8


 336              		.global	x_north
 337              		.section	.bss.x_north,"aw",%nobits
 338              		.align	2
 341              	x_north:
 342 0000 00000000 		.space	4
 343              		.global	z_yaw
 344              		.section	.bss.z_yaw,"aw",%nobits
 345              		.align	2
 348              	z_yaw:
 349 0000 00000000 		.space	4
 350              		.global	y_pitch
 351              		.section	.bss.y_pitch,"aw",%nobits
 352              		.align	2
 355              	y_pitch:
 356 0000 00000000 		.space	4
 357              		.global	x_roll
 358              		.section	.bss.x_roll,"aw",%nobits
 359              		.align	2
 362              	x_roll:
 363 0000 00000000 		.space	4
 364              		.global	z_accel
 365              		.section	.bss.z_accel,"aw",%nobits
 366              		.align	1
 369              	z_accel:
 370 0000 0000     		.space	2
 371              		.global	y_accel
 372              		.section	.bss.y_accel,"aw",%nobits
 373              		.align	1
 376              	y_accel:
 377 0000 0000     		.space	2
 378              		.global	x_accel
 379              		.section	.bss.x_accel,"aw",%nobits
 380              		.align	1
 383              	x_accel:
 384 0000 0000     		.space	2
 385              		.global	magnetic
 386              		.section	.bss.magnetic,"aw",%nobits
 387              		.align	2
 390              	magnetic:
 391 0000 00000000 		.space	6
 391      0000
 392              		.global	accel
 393              		.section	.bss.accel,"aw",%nobits
 394              		.align	2
 397              	accel:
 398 0000 00000000 		.space	6
 398      0000
 399              		.global	dat
 400              		.section	.bss.dat,"aw",%nobits
 403              	dat:
 404 0000 00       		.space	1
 405              		.global	data_magnetic
 406              		.section	.bss.data_magnetic,"aw",%nobits
 407              		.align	2
 410              	data_magnetic:
 411 0000 00000000 		.space	6
 411      0000
ARM GAS  C:\Users\nip6\AppData\Local\Temp\ccK3neGA.s 			page 9


 412              		.global	data_accel
 413              		.section	.bss.data_accel,"aw",%nobits
 414              		.align	2
 417              	data_accel:
 418 0000 00000000 		.space	6
 418      0000
 419              		.global	adc_value
 420              		.section	.bss.adc_value,"aw",%nobits
 421              		.align	2
 424              	adc_value:
 425 0000 00000000 		.space	6
 425      0000
 426              		.global	GlobalTickCount
 427              		.section	.bss.GlobalTickCount,"aw",%nobits
 428              		.align	1
 431              	GlobalTickCount:
 432 0000 0000     		.space	2
 433              		.global	adc_overrun_count
 434              		.section	.bss.adc_overrun_count,"aw",%nobits
 437              	adc_overrun_count:
 438 0000 00       		.space	1
 439              		.global	adc_conversion_complete
 440              		.section	.bss.adc_conversion_complete,"aw",%nobits
 443              	adc_conversion_complete:
 444 0000 00       		.space	1
 445              		.global	adcInter
 446              		.section	.bss.adcInter,"aw",%nobits
 447              		.align	1
 450              	adcInter:
 451 0000 0000     		.space	2
 452              		.global	adc_buf
 453              		.section	.bss.adc_buf,"aw",%nobits
 454              		.align	2
 457              	adc_buf:
 458 0000 00000000 		.space	6
 458      0000
 459              		.text
 460              	.Letext0:
 461              		.file 2 "C:/Programs/Tools/xpack-arm-none-eabi-gcc-13.2.1-1.1/arm-none-eabi/include/machine/_defau
 462              		.file 3 "C:/Programs/Tools/xpack-arm-none-eabi-gcc-13.2.1-1.1/arm-none-eabi/include/sys/_stdint.h"
 463              		.file 4 "Core/Inc/init.h"
 464              		.file 5 "Core/Inc/interrupt.h"
 465              		.file 6 "Core/Inc/i2c.h"
ARM GAS  C:\Users\nip6\AppData\Local\Temp\ccK3neGA.s 			page 10


DEFINED SYMBOLS
                            *ABS*:00000000 main.c
C:\Users\nip6\AppData\Local\Temp\ccK3neGA.s:21     .text.main:00000000 $t
C:\Users\nip6\AppData\Local\Temp\ccK3neGA.s:27     .text.main:00000000 main
C:\Users\nip6\AppData\Local\Temp\ccK3neGA.s:276    .text.main:00000188 $d
C:\Users\nip6\AppData\Local\Temp\ccK3neGA.s:403    .bss.dat:00000000 dat
C:\Users\nip6\AppData\Local\Temp\ccK3neGA.s:417    .bss.data_accel:00000000 data_accel
C:\Users\nip6\AppData\Local\Temp\ccK3neGA.s:397    .bss.accel:00000000 accel
C:\Users\nip6\AppData\Local\Temp\ccK3neGA.s:383    .bss.x_accel:00000000 x_accel
C:\Users\nip6\AppData\Local\Temp\ccK3neGA.s:376    .bss.y_accel:00000000 y_accel
C:\Users\nip6\AppData\Local\Temp\ccK3neGA.s:369    .bss.z_accel:00000000 z_accel
C:\Users\nip6\AppData\Local\Temp\ccK3neGA.s:362    .bss.x_roll:00000000 x_roll
C:\Users\nip6\AppData\Local\Temp\ccK3neGA.s:355    .bss.y_pitch:00000000 y_pitch
C:\Users\nip6\AppData\Local\Temp\ccK3neGA.s:348    .bss.z_yaw:00000000 z_yaw
C:\Users\nip6\AppData\Local\Temp\ccK3neGA.s:410    .bss.data_magnetic:00000000 data_magnetic
C:\Users\nip6\AppData\Local\Temp\ccK3neGA.s:390    .bss.magnetic:00000000 magnetic
C:\Users\nip6\AppData\Local\Temp\ccK3neGA.s:320    .bss.x_magnetic:00000000 x_magnetic
C:\Users\nip6\AppData\Local\Temp\ccK3neGA.s:313    .bss.y_magnetic:00000000 y_magnetic
C:\Users\nip6\AppData\Local\Temp\ccK3neGA.s:306    .bss.z_magnetic:00000000 z_magnetic
C:\Users\nip6\AppData\Local\Temp\ccK3neGA.s:341    .bss.x_north:00000000 x_north
C:\Users\nip6\AppData\Local\Temp\ccK3neGA.s:334    .bss.y_east:00000000 y_east
C:\Users\nip6\AppData\Local\Temp\ccK3neGA.s:327    .bss.z_down:00000000 z_down
C:\Users\nip6\AppData\Local\Temp\ccK3neGA.s:303    .bss.z_magnetic:00000000 $d
C:\Users\nip6\AppData\Local\Temp\ccK3neGA.s:310    .bss.y_magnetic:00000000 $d
C:\Users\nip6\AppData\Local\Temp\ccK3neGA.s:317    .bss.x_magnetic:00000000 $d
C:\Users\nip6\AppData\Local\Temp\ccK3neGA.s:324    .bss.z_down:00000000 $d
C:\Users\nip6\AppData\Local\Temp\ccK3neGA.s:331    .bss.y_east:00000000 $d
C:\Users\nip6\AppData\Local\Temp\ccK3neGA.s:338    .bss.x_north:00000000 $d
C:\Users\nip6\AppData\Local\Temp\ccK3neGA.s:345    .bss.z_yaw:00000000 $d
C:\Users\nip6\AppData\Local\Temp\ccK3neGA.s:352    .bss.y_pitch:00000000 $d
C:\Users\nip6\AppData\Local\Temp\ccK3neGA.s:359    .bss.x_roll:00000000 $d
C:\Users\nip6\AppData\Local\Temp\ccK3neGA.s:366    .bss.z_accel:00000000 $d
C:\Users\nip6\AppData\Local\Temp\ccK3neGA.s:373    .bss.y_accel:00000000 $d
C:\Users\nip6\AppData\Local\Temp\ccK3neGA.s:380    .bss.x_accel:00000000 $d
C:\Users\nip6\AppData\Local\Temp\ccK3neGA.s:387    .bss.magnetic:00000000 $d
C:\Users\nip6\AppData\Local\Temp\ccK3neGA.s:394    .bss.accel:00000000 $d
C:\Users\nip6\AppData\Local\Temp\ccK3neGA.s:404    .bss.dat:00000000 $d
C:\Users\nip6\AppData\Local\Temp\ccK3neGA.s:407    .bss.data_magnetic:00000000 $d
C:\Users\nip6\AppData\Local\Temp\ccK3neGA.s:414    .bss.data_accel:00000000 $d
C:\Users\nip6\AppData\Local\Temp\ccK3neGA.s:424    .bss.adc_value:00000000 adc_value
C:\Users\nip6\AppData\Local\Temp\ccK3neGA.s:421    .bss.adc_value:00000000 $d
C:\Users\nip6\AppData\Local\Temp\ccK3neGA.s:431    .bss.GlobalTickCount:00000000 GlobalTickCount
C:\Users\nip6\AppData\Local\Temp\ccK3neGA.s:428    .bss.GlobalTickCount:00000000 $d
C:\Users\nip6\AppData\Local\Temp\ccK3neGA.s:437    .bss.adc_overrun_count:00000000 adc_overrun_count
C:\Users\nip6\AppData\Local\Temp\ccK3neGA.s:438    .bss.adc_overrun_count:00000000 $d
C:\Users\nip6\AppData\Local\Temp\ccK3neGA.s:443    .bss.adc_conversion_complete:00000000 adc_conversion_complete
C:\Users\nip6\AppData\Local\Temp\ccK3neGA.s:444    .bss.adc_conversion_complete:00000000 $d
C:\Users\nip6\AppData\Local\Temp\ccK3neGA.s:450    .bss.adcInter:00000000 adcInter
C:\Users\nip6\AppData\Local\Temp\ccK3neGA.s:447    .bss.adcInter:00000000 $d
C:\Users\nip6\AppData\Local\Temp\ccK3neGA.s:457    .bss.adc_buf:00000000 adc_buf
C:\Users\nip6\AppData\Local\Temp\ccK3neGA.s:454    .bss.adc_buf:00000000 $d

UNDEFINED SYMBOLS
RCC_Init
GPIO_Init
SysTick_Init
ADC_Init
ARM GAS  C:\Users\nip6\AppData\Local\Temp\ccK3neGA.s 			page 11


DMA_Init
TIM_PWM_Init
I2C_Init
func1
I2C_WriteByte
I2C_ReadByte
I2C_ReadMultiple
